target datalayout = "e-m:e-p270:32:32-p271:32:32-p272:64:64-i64:64-i128:128-f80:128-n8:16:32:64-S128"
target triple = "x86_64-pc-linux-gnu"

%struct.grpc_arg_pointer_vtable = type { ptr, ptr, ptr }
%"class.grpc_core::ChannelArgs::Pointer" = type { ptr, ptr }
%"class.grpc_core::ChannelArgs" = type { %"class.grpc_core::AVL" }
%"class.grpc_core::AVL" = type { %"class.grpc_core::RefCountedPtr" }
%"class.grpc_core::RefCountedPtr" = type { ptr }
%"class.std::basic_string_view" = type { i64, ptr }
%"class.grpc_core::ChannelArgs::Value" = type { %"class.grpc_core::ChannelArgs::Pointer" }
%struct.grpc_arg = type { i32, ptr, %"union.(anonymous struct)::grpc_arg_value" }
%"union.(anonymous struct)::grpc_arg_value" = type { %"struct.(anonymous struct)::grpc_arg_value::grpc_arg_pointer" }
%"struct.(anonymous struct)::grpc_arg_value::grpc_arg_pointer" = type { ptr, ptr }

@_ZN9grpc_core11ChannelArgs5Value11int_vtable_E = constant %struct.grpc_arg_pointer_vtable { ptr @"_ZN9grpc_core11ChannelArgs5Value3$_08__invokeEPv", ptr @"_ZN9grpc_core11ChannelArgs5Value3$_18__invokeEPv", ptr @"_ZN9grpc_core11ChannelArgs5Value3$_28__invokeEPvS3_" }, align 8
@.str.1 = private unnamed_addr constant [1 x i8] zeroinitializer, align 1
@.str.2 = private unnamed_addr constant [21 x i8] c"return ChannelArgs()\00", align 1
@.str.3 = private unnamed_addr constant [124 x i8] c"generated/home/dtcxzyw/WorkSpace/Projects/compilers/llvm-opt-benchmark/bench/grpc/grpc/src/core/lib/channel/channel_args.cc\00", align 1
@_ZN9grpc_core11ChannelArgs7PointerC1EPvPK23grpc_arg_pointer_vtable = unnamed_addr alias void (ptr, ptr, ptr), ptr @_ZN9grpc_core11ChannelArgs7PointerC2EPvPK23grpc_arg_pointer_vtable

; Function Attrs: inlinehint mustprogress nounwind uwtable
define linkonce_odr void @_ZN9grpc_core11ChannelArgs5ValueD2Ev(ptr noundef nonnull align 8 dereferenceable(16) %0) unnamed_addr #8 comdat align 2 {
  %2 = alloca ptr, align 8
  store ptr %0, ptr %2, align 8, !tbaa !29
  %3 = load ptr, ptr %2, align 8
  %4 = getelementptr inbounds nuw %"class.grpc_core::ChannelArgs::Value", ptr %3, i32 0, i32 0
  call void @_ZN9grpc_core11ChannelArgs7PointerD2Ev(ptr noundef nonnull align 8 dereferenceable(16) %4) #3
  ret void
}

; Function Attrs: mustprogress uwtable
define linkonce_odr void @_ZN9grpc_core11ChannelArgs5ValueC2Ei(ptr noundef nonnull align 8 dereferenceable(16) %0, i32 noundef %1) unnamed_addr #5 comdat align 2 {
  %3 = alloca ptr, align 8
  %4 = alloca i32, align 4
  store ptr %0, ptr %3, align 8, !tbaa !29
  store i32 %1, ptr %4, align 4, !tbaa !31
  %5 = load ptr, ptr %3, align 8
  %6 = getelementptr inbounds nuw %"class.grpc_core::ChannelArgs::Value", ptr %5, i32 0, i32 0
  %7 = load i32, ptr %4, align 4, !tbaa !31
  %8 = sext i32 %7 to i64
  %9 = inttoptr i64 %8 to ptr
  call void @_ZN9grpc_core11ChannelArgs7PointerC1EPvPK23grpc_arg_pointer_vtable(ptr noundef nonnull align 8 dereferenceable(16) %6, ptr noundef %9, ptr noundef @_ZN9grpc_core11ChannelArgs5Value11int_vtable_E)
  ret void
}

; Function Attrs: mustprogress nounwind uwtable
define linkonce_odr noundef i64 @_ZNSt11char_traitsIcE6lengthEPKc(ptr noundef %0) #6 comdat align 2 {
  %2 = alloca ptr, align 8
  store ptr %0, ptr %2, align 8, !tbaa !25
  %3 = load ptr, ptr %2, align 8, !tbaa !25
  %4 = call i64 @strlen(ptr noundef %3) #3
  ret i64 %4
}

; Function Attrs: mustprogress nounwind uwtable
define linkonce_odr void @_ZN9grpc_core11ChannelArgs7PointerD2Ev(ptr noundef nonnull align 8 dereferenceable(16) %0) unnamed_addr #6 comdat align 2 personality ptr @__gxx_personality_v0 {
  %2 = alloca ptr, align 8
  store ptr %0, ptr %2, align 8, !tbaa !7
  %3 = load ptr, ptr %2, align 8
  %4 = getelementptr inbounds nuw %"class.grpc_core::ChannelArgs::Pointer", ptr %3, i32 0, i32 1
  %5 = load ptr, ptr %4, align 8, !tbaa !13
  %6 = getelementptr inbounds nuw %struct.grpc_arg_pointer_vtable, ptr %5, i32 0, i32 1
  %7 = load ptr, ptr %6, align 8, !tbaa !47
  %8 = getelementptr inbounds nuw %"class.grpc_core::ChannelArgs::Pointer", ptr %3, i32 0, i32 0
  %9 = load ptr, ptr %8, align 8, !tbaa !11
  invoke void %7(ptr noundef %9)
          to label %10 unwind label %11

10:                                               ; preds = %1
  ret void

11:                                               ; preds = %1
  %12 = landingpad { ptr, i32 }
          catch ptr null
  %13 = extractvalue { ptr, i32 } %12, 0
  call void @__clang_call_terminate(ptr %13) #22
  unreachable
}

; Function Attrs: mustprogress uwtable
define void @_ZNK9grpc_core11ChannelArgs3SetESt17basic_string_viewIcSt11char_traitsIcEEi(ptr dead_on_unwind noalias writable sret(%"class.grpc_core::ChannelArgs") align 8 %0, ptr noundef nonnull align 8 dereferenceable(8) %1, i64 %2, ptr %3, i32 noundef %4) #5 align 2 personality ptr @__gxx_personality_v0 {
  %6 = alloca ptr, align 8
  %7 = alloca %"class.std::basic_string_view", align 8
  %8 = alloca ptr, align 8
  %9 = alloca i32, align 4
  %10 = alloca %"class.std::basic_string_view", align 8
  %11 = alloca %"class.grpc_core::ChannelArgs::Value", align 8
  %12 = alloca ptr, align 8
  %13 = alloca i32, align 4
  store ptr %0, ptr %6, align 8
  %14 = getelementptr inbounds nuw { i64, ptr }, ptr %7, i32 0, i32 0
  store i64 %2, ptr %14, align 8
  %15 = getelementptr inbounds nuw { i64, ptr }, ptr %7, i32 0, i32 1
  store ptr %3, ptr %15, align 8
  store ptr %1, ptr %8, align 8, !tbaa !16
  store i32 %4, ptr %9, align 4, !tbaa !31
  %16 = load ptr, ptr %8, align 8
  call void @llvm.memcpy.p0.p0.i64(ptr align 8 %10, ptr align 8 %7, i64 16, i1 false), !tbaa.struct !22
  %17 = load i32, ptr %9, align 4, !tbaa !31
  call void @_ZN9grpc_core11ChannelArgs5ValueC2Ei(ptr noundef nonnull align 8 dereferenceable(16) %11, i32 noundef %17)
  %18 = getelementptr inbounds nuw { i64, ptr }, ptr %10, i32 0, i32 0
  %19 = load i64, ptr %18, align 8
  %20 = getelementptr inbounds nuw { i64, ptr }, ptr %10, i32 0, i32 1
  %21 = load ptr, ptr %20, align 8
  invoke void @_ZNK9grpc_core11ChannelArgs3SetESt17basic_string_viewIcSt11char_traitsIcEENS0_5ValueE(ptr dead_on_unwind writable sret(%"class.grpc_core::ChannelArgs") align 8 %0, ptr noundef nonnull align 8 dereferenceable(8) %16, i64 %19, ptr %21, ptr noundef %11)
          to label %22 unwind label %23

22:                                               ; preds = %5
  call void @_ZN9grpc_core11ChannelArgs5ValueD2Ev(ptr noundef nonnull align 8 dereferenceable(16) %11) #3
  ret void

23:                                               ; preds = %5
  %24 = landingpad { ptr, i32 }
          cleanup
  %25 = extractvalue { ptr, i32 } %24, 0
  store ptr %25, ptr %12, align 8
  %26 = extractvalue { ptr, i32 } %24, 1
  store i32 %26, ptr %13, align 4
  call void @_ZN9grpc_core11ChannelArgs5ValueD2Ev(ptr noundef nonnull align 8 dereferenceable(16) %11) #3
  br label %27

27:                                               ; preds = %23
  %28 = load ptr, ptr %12, align 8
  %29 = load i32, ptr %13, align 4
  %30 = insertvalue { ptr, i32 } poison, ptr %28, 0
  %31 = insertvalue { ptr, i32 } %30, i32 %29, 1
  resume { ptr, i32 } %31
}

; Function Attrs: mustprogress nounwind uwtable
define linkonce_odr void @_ZNSt17basic_string_viewIcSt11char_traitsIcEEC2EPKc(ptr noundef nonnull align 8 dereferenceable(16) %0, ptr noundef nonnull %1) unnamed_addr #6 comdat align 2 personality ptr @__gxx_personality_v0 {
  %3 = alloca ptr, align 8
  %4 = alloca ptr, align 8
  store ptr %0, ptr %3, align 8, !tbaa !20
  store ptr %1, ptr %4, align 8, !tbaa !25
  %5 = load ptr, ptr %3, align 8
  %6 = getelementptr inbounds nuw %"class.std::basic_string_view", ptr %5, i32 0, i32 0
  %7 = load ptr, ptr %4, align 8, !tbaa !25
  %8 = invoke noundef i64 @_ZNSt11char_traitsIcE6lengthEPKc(ptr noundef %7)
          to label %9 unwind label %12

9:                                                ; preds = %2
  store i64 %8, ptr %6, align 8, !tbaa !33
  %10 = getelementptr inbounds nuw %"class.std::basic_string_view", ptr %5, i32 0, i32 1
  %11 = load ptr, ptr %4, align 8, !tbaa !25
  store ptr %11, ptr %10, align 8, !tbaa !35
  ret void

12:                                               ; preds = %2
  %13 = landingpad { ptr, i32 }
          catch ptr null
  %14 = extractvalue { ptr, i32 } %13, 0
  call void @__clang_call_terminate(ptr %14) #22
  unreachable
}

; Function Attrs: mustprogress uwtable
define void @_ZNK9grpc_core11ChannelArgs3SetE8grpc_arg(ptr dead_on_unwind noalias writable sret(%"class.grpc_core::ChannelArgs") align 8 %0, ptr noundef nonnull align 8 dereferenceable(8) %1, ptr noundef byval(%struct.grpc_arg) align 8 %2) #5 align 2 personality ptr @__gxx_personality_v0 {
  %4 = alloca ptr, align 8
  %5 = alloca ptr, align 8
  %6 = alloca %"class.std::basic_string_view", align 8
  %7 = alloca %"class.std::basic_string_view", align 8
  %8 = alloca %"class.std::basic_string_view", align 8
  %9 = alloca %"class.std::basic_string_view", align 8
  %10 = alloca %"class.grpc_core::ChannelArgs::Pointer", align 8
  %11 = alloca ptr, align 8
  %12 = alloca i32, align 4
  store ptr %0, ptr %4, align 8
  store ptr %1, ptr %5, align 8, !tbaa !16
  %13 = load ptr, ptr %5, align 8
  %14 = getelementptr inbounds nuw %struct.grpc_arg, ptr %2, i32 0, i32 0
  %15 = load i32, ptr %14, align 8, !tbaa !42
  switch i32 %15, label %69 [
    i32 1, label %16
    i32 0, label %25
    i32 2, label %45
  ]

16:                                               ; preds = %3
  %17 = getelementptr inbounds nuw %struct.grpc_arg, ptr %2, i32 0, i32 1
  %18 = load ptr, ptr %17, align 8, !tbaa !45
  call void @_ZNSt17basic_string_viewIcSt11char_traitsIcEEC2EPKc(ptr noundef nonnull align 8 dereferenceable(16) %6, ptr noundef %18) #3
  %19 = getelementptr inbounds nuw %struct.grpc_arg, ptr %2, i32 0, i32 2
  %20 = load i32, ptr %19, align 8, !tbaa !46
  %21 = getelementptr inbounds nuw { i64, ptr }, ptr %6, i32 0, i32 0
  %22 = load i64, ptr %21, align 8
  %23 = getelementptr inbounds nuw { i64, ptr }, ptr %6, i32 0, i32 1
  %24 = load ptr, ptr %23, align 8
  call void @_ZNK9grpc_core11ChannelArgs3SetESt17basic_string_viewIcSt11char_traitsIcEEi(ptr dead_on_unwind writable sret(%"class.grpc_core::ChannelArgs") align 8 %0, ptr noundef nonnull align 8 dereferenceable(8) %13, i64 %22, ptr %24, i32 noundef %20)
  br label %72

25:                                               ; preds = %3
  %26 = getelementptr inbounds nuw %struct.grpc_arg, ptr %2, i32 0, i32 2
  %27 = load ptr, ptr %26, align 8, !tbaa !46
  %28 = icmp ne ptr %27, null
  br i1 %28, label %29, label %38

29:                                               ; preds = %25
  %30 = getelementptr inbounds nuw %struct.grpc_arg, ptr %2, i32 0, i32 1
  %31 = load ptr, ptr %30, align 8, !tbaa !45
  call void @_ZNSt17basic_string_viewIcSt11char_traitsIcEEC2EPKc(ptr noundef nonnull align 8 dereferenceable(16) %7, ptr noundef %31) #3
  %32 = getelementptr inbounds nuw %struct.grpc_arg, ptr %2, i32 0, i32 2
  %33 = load ptr, ptr %32, align 8, !tbaa !46
  %34 = getelementptr inbounds nuw { i64, ptr }, ptr %7, i32 0, i32 0
  %35 = load i64, ptr %34, align 8
  %36 = getelementptr inbounds nuw { i64, ptr }, ptr %7, i32 0, i32 1
  %37 = load ptr, ptr %36, align 8
  call void @_ZNK9grpc_core11ChannelArgs3SetESt17basic_string_viewIcSt11char_traitsIcEEPKc(ptr dead_on_unwind writable sret(%"class.grpc_core::ChannelArgs") align 8 %0, ptr noundef nonnull align 8 dereferenceable(8) %13, i64 %35, ptr %37, ptr noundef %33)
  br label %72

38:                                               ; preds = %25
  %39 = getelementptr inbounds nuw %struct.grpc_arg, ptr %2, i32 0, i32 1
  %40 = load ptr, ptr %39, align 8, !tbaa !45
  call void @_ZNSt17basic_string_viewIcSt11char_traitsIcEEC2EPKc(ptr noundef nonnull align 8 dereferenceable(16) %8, ptr noundef %40) #3
  %41 = getelementptr inbounds nuw { i64, ptr }, ptr %8, i32 0, i32 0
  %42 = load i64, ptr %41, align 8
  %43 = getelementptr inbounds nuw { i64, ptr }, ptr %8, i32 0, i32 1
  %44 = load ptr, ptr %43, align 8
  call void @_ZNK9grpc_core11ChannelArgs3SetESt17basic_string_viewIcSt11char_traitsIcEEPKc(ptr dead_on_unwind writable sret(%"class.grpc_core::ChannelArgs") align 8 %0, ptr noundef nonnull align 8 dereferenceable(8) %13, i64 %42, ptr %44, ptr noundef @.str.1)
  br label %72

45:                                               ; preds = %3
  %46 = getelementptr inbounds nuw %struct.grpc_arg, ptr %2, i32 0, i32 1
  %47 = load ptr, ptr %46, align 8, !tbaa !45
  call void @_ZNSt17basic_string_viewIcSt11char_traitsIcEEC2EPKc(ptr noundef nonnull align 8 dereferenceable(16) %9, ptr noundef %47) #3
  %48 = getelementptr inbounds nuw %struct.grpc_arg, ptr %2, i32 0, i32 2
  %49 = getelementptr inbounds nuw %"struct.(anonymous struct)::grpc_arg_value::grpc_arg_pointer", ptr %48, i32 0, i32 1
  %50 = load ptr, ptr %49, align 8, !tbaa !46
  %51 = getelementptr inbounds nuw %struct.grpc_arg_pointer_vtable, ptr %50, i32 0, i32 0
  %52 = load ptr, ptr %51, align 8, !tbaa !14
  %53 = getelementptr inbounds nuw %struct.grpc_arg, ptr %2, i32 0, i32 2
  %54 = getelementptr inbounds nuw %"struct.(anonymous struct)::grpc_arg_value::grpc_arg_pointer", ptr %53, i32 0, i32 0
  %55 = load ptr, ptr %54, align 8, !tbaa !46
  %56 = call noundef ptr %52(ptr noundef %55)
  %57 = getelementptr inbounds nuw %struct.grpc_arg, ptr %2, i32 0, i32 2
  %58 = getelementptr inbounds nuw %"struct.(anonymous struct)::grpc_arg_value::grpc_arg_pointer", ptr %57, i32 0, i32 1
  %59 = load ptr, ptr %58, align 8, !tbaa !46
  call void @_ZN9grpc_core11ChannelArgs7PointerC1EPvPK23grpc_arg_pointer_vtable(ptr noundef nonnull align 8 dereferenceable(16) %10, ptr noundef %56, ptr noundef %59)
  %60 = getelementptr inbounds nuw { i64, ptr }, ptr %9, i32 0, i32 0
  %61 = load i64, ptr %60, align 8
  %62 = getelementptr inbounds nuw { i64, ptr }, ptr %9, i32 0, i32 1
  %63 = load ptr, ptr %62, align 8
  invoke void @_ZNK9grpc_core11ChannelArgs3SetESt17basic_string_viewIcSt11char_traitsIcEENS0_7PointerE(ptr dead_on_unwind writable sret(%"class.grpc_core::ChannelArgs") align 8 %0, ptr noundef nonnull align 8 dereferenceable(8) %13, i64 %61, ptr %63, ptr noundef %10)
          to label %64 unwind label %65

64:                                               ; preds = %45
  call void @_ZN9grpc_core11ChannelArgs7PointerD2Ev(ptr noundef nonnull align 8 dereferenceable(16) %10) #3
  br label %72

65:                                               ; preds = %45
  %66 = landingpad { ptr, i32 }
          cleanup
  %67 = extractvalue { ptr, i32 } %66, 0
  store ptr %67, ptr %11, align 8
  %68 = extractvalue { ptr, i32 } %66, 1
  store i32 %68, ptr %12, align 4
  call void @_ZN9grpc_core11ChannelArgs7PointerD2Ev(ptr noundef nonnull align 8 dereferenceable(16) %10) #3
  br label %73

69:                                               ; preds = %3
  br label %70

70:                                               ; preds = %69
  call void @gpr_unreachable_code(ptr noundef @.str.2, ptr noundef @.str.3, i32 noundef 141) #25
  unreachable

71:                                               ; No predecessors!
  unreachable

72:                                               ; preds = %64, %38, %29, %16
  ret void

73:                                               ; preds = %65
  %74 = load ptr, ptr %11, align 8
  %75 = load i32, ptr %12, align 4
  %76 = insertvalue { ptr, i32 } poison, ptr %74, 0
  %77 = insertvalue { ptr, i32 } %76, i32 %75, 1
  resume { ptr, i32 } %77
}