; Function Attrs: mustprogress uwtable
define void @_ZNK9grpc_core11ChannelArgs3SetE8grpc_arg(ptr dead_on_unwind noalias writable sret(%"class.grpc_core::ChannelArgs") align 8 %0, ptr noundef nonnull align 8 dereferenceable(8) %1, ptr noundef readonly byval(%struct.grpc_arg) align 8 captures(none) %2) local_unnamed_addr #9 align 2 personality ptr @__gxx_personality_v0 {
  %4 = alloca %"class.grpc_core::ChannelArgs::Value", align 8
  %5 = alloca %"class.grpc_core::ChannelArgs::Pointer", align 8
  %6 = load i32, ptr %2, align 8, !tbaa !37
  switch i32 %6, label %71 [
    i32 1, label %7
    i32 0, label %34
    i32 2, label %42
  ]

7:                                                ; preds = %3
  %8 = getelementptr inbounds nuw i8, ptr %2, i64 8
  %9 = load ptr, ptr %8, align 8, !tbaa !40
  %10 = tail call noundef i64 @strlen(ptr noundef nonnull dereferenceable(1) %9) #37
  %11 = getelementptr inbounds nuw i8, ptr %2, i64 16
  %12 = load i32, ptr %11, align 8, !tbaa !41
  call void @llvm.lifetime.start.p0(i64 16, ptr nonnull %4)
  %13 = sext i32 %12 to i64
  %14 = inttoptr i64 %13 to ptr
  call void @_ZN9grpc_core11ChannelArgs7PointerC1EPvPK23grpc_arg_pointer_vtable(ptr noundef nonnull align 8 dereferenceable(16) %4, ptr noundef %14, ptr noundef nonnull @_ZN9grpc_core11ChannelArgs5Value11int_vtable_E), !noalias !42
  invoke void @_ZNK9grpc_core11ChannelArgs3SetESt17basic_string_viewIcSt11char_traitsIcEENS0_5ValueE(ptr dead_on_unwind writable sret(%"class.grpc_core::ChannelArgs") align 8 %0, ptr noundef nonnull align 8 dereferenceable(8) %1, i64 %10, ptr nonnull %9, ptr noundef nonnull %4)
          to label %15 unwind label %24

15:                                               ; preds = %7
  %16 = getelementptr inbounds nuw i8, ptr %4, i64 8
  %17 = load ptr, ptr %16, align 8, !tbaa !18, !noalias !42
  %18 = getelementptr inbounds nuw i8, ptr %17, i64 8
  %19 = load ptr, ptr %18, align 8, !tbaa !45
  %20 = load ptr, ptr %4, align 8, !tbaa !14, !noalias !42
  invoke void %19(ptr noundef %20)
          to label %_ZNK9grpc_core11ChannelArgs3SetESt17basic_string_viewIcSt11char_traitsIcEEi.exit unwind label %21

21:                                               ; preds = %15
  %22 = landingpad { ptr, i32 }
          catch ptr null
  %23 = extractvalue { ptr, i32 } %22, 0
  call void @__clang_call_terminate(ptr %23) #38
  unreachable

24:                                               ; preds = %7
  %25 = landingpad { ptr, i32 }
          cleanup
  %26 = getelementptr inbounds nuw i8, ptr %4, i64 8
  %27 = load ptr, ptr %26, align 8, !tbaa !18, !noalias !42
  %28 = getelementptr inbounds nuw i8, ptr %27, i64 8
  %29 = load ptr, ptr %28, align 8, !tbaa !45
  %30 = load ptr, ptr %4, align 8, !tbaa !14, !noalias !42
  invoke void %29(ptr noundef %30)
          to label %common.resume unwind label %31

31:                                               ; preds = %24
  %32 = landingpad { ptr, i32 }
          catch ptr null
  %33 = extractvalue { ptr, i32 } %32, 0
  call void @__clang_call_terminate(ptr %33) #38
  unreachable

common.resume:                                    ; preds = %61, %24
  %common.resume.op = phi { ptr, i32 } [ %25, %24 ], [ %62, %61 ]
  resume { ptr, i32 } %common.resume.op

_ZNK9grpc_core11ChannelArgs3SetESt17basic_string_viewIcSt11char_traitsIcEEi.exit: ; preds = %15
  call void @llvm.lifetime.end.p0(i64 16, ptr nonnull %4)
  br label %_ZN9grpc_core11ChannelArgs7PointerD2Ev.exit

34:                                               ; preds = %3
  %35 = getelementptr inbounds nuw i8, ptr %2, i64 16
  %36 = load ptr, ptr %35, align 8, !tbaa !41
  %.not = icmp eq ptr %36, null
  %37 = getelementptr inbounds nuw i8, ptr %2, i64 8
  %38 = load ptr, ptr %37, align 8, !tbaa !40
  %39 = tail call noundef i64 @strlen(ptr noundef nonnull dereferenceable(1) %38) #37
  br i1 %.not, label %41, label %40

40:                                               ; preds = %34
  tail call void @_ZNK9grpc_core11ChannelArgs3SetESt17basic_string_viewIcSt11char_traitsIcEEPKc(ptr dead_on_unwind writable sret(%"class.grpc_core::ChannelArgs") align 8 %0, ptr noundef nonnull align 8 dereferenceable(8) %1, i64 %39, ptr nonnull %38, ptr noundef nonnull %36)
  br label %_ZN9grpc_core11ChannelArgs7PointerD2Ev.exit

41:                                               ; preds = %34
  tail call void @_ZNK9grpc_core11ChannelArgs3SetESt17basic_string_viewIcSt11char_traitsIcEEPKc(ptr dead_on_unwind writable sret(%"class.grpc_core::ChannelArgs") align 8 %0, ptr noundef nonnull align 8 dereferenceable(8) %1, i64 %39, ptr nonnull %38, ptr noundef nonnull @.str.1)
  br label %_ZN9grpc_core11ChannelArgs7PointerD2Ev.exit

42:                                               ; preds = %3
  %43 = getelementptr inbounds nuw i8, ptr %2, i64 8
  %44 = load ptr, ptr %43, align 8, !tbaa !40
  %45 = tail call noundef i64 @strlen(ptr noundef nonnull dereferenceable(1) %44) #37
  %46 = getelementptr inbounds nuw i8, ptr %2, i64 16
  %47 = getelementptr inbounds nuw i8, ptr %2, i64 24
  %48 = load ptr, ptr %47, align 8, !tbaa !41
  %49 = load ptr, ptr %48, align 8, !tbaa !19
  %50 = load ptr, ptr %46, align 8, !tbaa !41
  %51 = tail call noundef ptr %49(ptr noundef %50)
  call void @_ZN9grpc_core11ChannelArgs7PointerC1EPvPK23grpc_arg_pointer_vtable(ptr noundef nonnull align 8 dereferenceable(16) %5, ptr noundef %51, ptr noundef nonnull %48)
  invoke void @_ZNK9grpc_core11ChannelArgs3SetESt17basic_string_viewIcSt11char_traitsIcEENS0_7PointerE(ptr dead_on_unwind writable sret(%"class.grpc_core::ChannelArgs") align 8 %0, ptr noundef nonnull align 8 dereferenceable(8) %1, i64 %45, ptr nonnull %44, ptr noundef nonnull %5)
          to label %52 unwind label %61

52:                                               ; preds = %42
  %53 = getelementptr inbounds nuw i8, ptr %5, i64 8
  %54 = load ptr, ptr %53, align 8, !tbaa !18
  %55 = getelementptr inbounds nuw i8, ptr %54, i64 8
  %56 = load ptr, ptr %55, align 8, !tbaa !45
  %57 = load ptr, ptr %5, align 8, !tbaa !14
  invoke void %56(ptr noundef %57)
          to label %_ZN9grpc_core11ChannelArgs7PointerD2Ev.exit unwind label %58

58:                                               ; preds = %52
  %59 = landingpad { ptr, i32 }
          catch ptr null
  %60 = extractvalue { ptr, i32 } %59, 0
  call void @__clang_call_terminate(ptr %60) #38
  unreachable

61:                                               ; preds = %42
  %62 = landingpad { ptr, i32 }
          cleanup
  %63 = getelementptr inbounds nuw i8, ptr %5, i64 8
  %64 = load ptr, ptr %63, align 8, !tbaa !18
  %65 = getelementptr inbounds nuw i8, ptr %64, i64 8
  %66 = load ptr, ptr %65, align 8, !tbaa !45
  %67 = load ptr, ptr %5, align 8, !tbaa !14
  invoke void %66(ptr noundef %67)
          to label %common.resume unwind label %68

68:                                               ; preds = %61
  %69 = landingpad { ptr, i32 }
          catch ptr null
  %70 = extractvalue { ptr, i32 } %69, 0
  call void @__clang_call_terminate(ptr %70) #38
  unreachable

71:                                               ; preds = %3
  tail call void @gpr_unreachable_code(ptr noundef nonnull @.str.2, ptr noundef nonnull @.str.3, i32 noundef 141) #41
  unreachable

_ZN9grpc_core11ChannelArgs7PointerD2Ev.exit:      ; preds = %52, %41, %40, %_ZNK9grpc_core11ChannelArgs3SetESt17basic_string_viewIcSt11char_traitsIcEEi.exit
  ret void
}